target datalayout = "e-m:e-p270:32:32-p271:32:32-p272:64:64-i64:64-i128:128-f80:128-n8:16:32:64-S128"
target triple = "x86_64-pc-linux-gnu"

%struct._zend_executor_globals = type { %struct._zval_struct, %struct._zval_struct, [32 x ptr], ptr, ptr, %struct._zend_array, %struct._zend_array, ptr, i32, i32, ptr, ptr, ptr, ptr, ptr, ptr, i64, ptr, ptr, i32, i32, i64, i32, i32, i32, i8, i8, %struct.zend_atomic_bool_s, %struct.zend_atomic_bool_s, ptr, i64, ptr, ptr, %struct._zend_array, %struct._zend_array, i32, i8, %struct._zval_struct, %struct._zval_struct, %struct._zend_stack, %struct._zend_stack, %struct._zend_stack, ptr, i32, i32, i64, ptr, ptr, ptr, %struct._zend_objects_store, ptr, ptr, ptr, [3 x %struct._zend_op], ptr, i8, i8, i64, i32, i32, ptr, [16 x %struct._HashTableIterator], ptr, %union._zend_function, %struct._zend_op, %struct._zend_array, i64, %struct.zend_get_gc_buffer, ptr, ptr, ptr, i64, i8, i32, ptr, ptr, i64, %struct._zend_call_stack, i64, i64, [6 x ptr] }
%struct.zend_atomic_bool_s = type { i8 }
%struct._zval_struct = type { %union._zend_value, %union.anon, %union.anon.2 }
%union._zend_value = type { i64 }
%union.anon = type { i32 }
%union.anon.2 = type { i32 }
%struct._zend_stack = type { i32, i32, i32, ptr }
%struct._zend_objects_store = type { ptr, i32, i32, i32 }
%struct._HashTableIterator = type { ptr, i32, i32 }
%union._zend_function = type { %struct._zend_op_array }
%struct._zend_op_array = type { i8, [3 x i8], i32, ptr, ptr, ptr, i32, i32, ptr, ptr, ptr, ptr, i32, i32, i32, i32, ptr, ptr, ptr, ptr, ptr, i32, i32, ptr, ptr, ptr, i32, i32, i32, i32, ptr, ptr, [6 x ptr] }
%struct._zend_op = type { ptr, %union._znode_op, %union._znode_op, %union._znode_op, i32, i32, i8, i8, i8, i8 }
%union._znode_op = type { i32 }
%struct._zend_array = type { %struct._zend_refcounted_h, %union.anon.4, i32, %union.anon.6, i32, i32, i32, i32, i64, ptr }
%struct._zend_refcounted_h = type { i32, %union.anon.3 }
%union.anon.3 = type { i32 }
%union.anon.4 = type { i32 }
%union.anon.6 = type { ptr }
%struct.zend_get_gc_buffer = type { ptr, ptr, ptr }
%struct._zend_call_stack = type { ptr, i64 }
%struct._zend_string = type { %struct._zend_refcounted_h, i64, i64, [1 x i8] }
%struct._dom_object = type { ptr, ptr, ptr, %struct._zend_object }
%struct._zend_object = type { %struct._zend_refcounted_h, i32, ptr, ptr, ptr, [1 x %struct._zval_struct] }
%struct._zend_execute_data = type { ptr, ptr, ptr, ptr, %struct._zval_struct, ptr, ptr, ptr, ptr }
%struct._zend_class_entry = type { i8, ptr, %union.anon.8, i32, i32, i32, i32, ptr, ptr, ptr, %struct._zend_array, %struct._zend_array, %struct._zend_array, ptr, ptr, ptr, ptr, ptr, ptr, ptr, ptr, ptr, ptr, ptr, ptr, ptr, ptr, ptr, ptr, ptr, ptr, ptr, %union.anon.9, ptr, ptr, ptr, ptr, i32, i32, %union.anon.10, ptr, ptr, ptr, ptr, i32, ptr, ptr, %union.anon.11 }
%union.anon.8 = type { ptr }
%union.anon.9 = type { ptr }
%union.anon.10 = type { ptr }
%union.anon.11 = type { %struct.anon.12 }
%struct.anon.12 = type { ptr, i32, i32 }
%struct._php_libxml_node_ptr = type { ptr, i32, ptr }
%struct._xmlNode = type { ptr, i32, ptr, ptr, ptr, ptr, ptr, ptr, ptr, ptr, ptr, ptr, ptr, ptr, i16, i16 }
%struct._xmlNs = type { ptr, i32, ptr, ptr, ptr, ptr }
%struct._php_libxml_ref_obj = type { ptr, ptr, %struct.php_libxml_cache_tag, i32, i8 }
%struct.php_libxml_cache_tag = type { i64 }

@executor_globals = external global %struct._zend_executor_globals, align 8
@.str.2 = private unnamed_addr constant [18 x i8] c"Couldn't fetch %s\00", align 1
@.str.4 = private unnamed_addr constant [4 x i8] c"O|b\00", align 1
@dom_node_class_entry = external global ptr, align 8
@.str.5 = private unnamed_addr constant [39 x i8] c"Cannot import: Node Type Not Supported\00", align 1

; Function Attrs: nounwind uwtable
define internal ptr @php_dom_obj_from_obj(ptr noundef %0) #0 {
  %2 = alloca ptr, align 8
  store ptr %0, ptr %2, align 8
  %3 = load ptr, ptr %2, align 8
  %4 = getelementptr inbounds i8, ptr %3, i64 -24
  ret ptr %4
}

; Function Attrs: nounwind uwtable
define hidden void @zim_DOM_Document_importNode(ptr noundef %0, ptr noundef %1) #0 {
  %3 = alloca ptr, align 8
  %4 = alloca ptr, align 8
  %5 = alloca ptr, align 8
  %6 = alloca ptr, align 8
  %7 = alloca ptr, align 8
  %8 = alloca ptr, align 8
  %9 = alloca ptr, align 8
  %10 = alloca ptr, align 8
  %11 = alloca ptr, align 8
  %12 = alloca i32, align 4
  %13 = alloca i8, align 1
  %14 = alloca ptr, align 8
  %15 = alloca ptr, align 8
  %16 = alloca i32, align 4
  store ptr %0, ptr %4, align 8
  store ptr %1, ptr %5, align 8
  store i8 0, ptr %13, align 1
  %17 = load ptr, ptr %4, align 8
  %18 = getelementptr inbounds %struct._zend_execute_data, ptr %17, i32 0, i32 4
  %19 = getelementptr inbounds %struct._zval_struct, ptr %18, i32 0, i32 2
  %20 = load i32, ptr %19, align 4
  %21 = load ptr, ptr @dom_node_class_entry, align 8
  %22 = call i32 (i32, ptr, ...) @zend_parse_parameters(i32 noundef %20, ptr noundef @.str.4, ptr noundef %6, ptr noundef %21, ptr noundef %13)
  %23 = icmp eq i32 %22, -1
  br i1 %23, label %24, label %29

24:                                               ; preds = %2
  br label %25

25:                                               ; preds = %24
  %26 = load ptr, ptr getelementptr inbounds (%struct._zend_executor_globals, ptr @executor_globals, i32 0, i32 50), align 8
  %27 = icmp ne ptr %26, null
  call void @llvm.assume(i1 %27)
  br label %205

28:                                               ; No predecessors!
  br label %29

29:                                               ; preds = %28, %2
  %30 = load ptr, ptr %4, align 8
  %31 = getelementptr inbounds %struct._zend_execute_data, ptr %30, i32 0, i32 4
  %32 = getelementptr inbounds %struct._zval_struct, ptr %31, i32 0, i32 0
  %33 = load ptr, ptr %32, align 8
  %34 = call ptr @php_dom_obj_from_obj(ptr noundef %33)
  store ptr %34, ptr %10, align 8
  %35 = load ptr, ptr %10, align 8
  %36 = getelementptr inbounds %struct._dom_object, ptr %35, i32 0, i32 0
  %37 = load ptr, ptr %36, align 8
  %38 = icmp eq ptr %37, null
  %39 = xor i1 %38, true
  %40 = xor i1 %39, true
  %41 = zext i1 %40 to i32
  %42 = sext i32 %41 to i64
  %43 = icmp ne i64 %42, 0
  br i1 %43, label %44, label %57

44:                                               ; preds = %29
  %45 = load ptr, ptr %10, align 8
  %46 = getelementptr inbounds %struct._dom_object, ptr %45, i32 0, i32 3
  %47 = getelementptr inbounds %struct._zend_object, ptr %46, i32 0, i32 2
  %48 = load ptr, ptr %47, align 8
  %49 = getelementptr inbounds %struct._zend_class_entry, ptr %48, i32 0, i32 1
  %50 = load ptr, ptr %49, align 8
  %51 = getelementptr inbounds %struct._zend_string, ptr %50, i32 0, i32 3
  %52 = getelementptr inbounds [1 x i8], ptr %51, i64 0, i64 0
  call void (ptr, ptr, ...) @zend_throw_error(ptr noundef null, ptr noundef @.str.2, ptr noundef %52)
  br label %53

53:                                               ; preds = %44
  %54 = load ptr, ptr getelementptr inbounds (%struct._zend_executor_globals, ptr @executor_globals, i32 0, i32 50), align 8
  %55 = icmp ne ptr %54, null
  call void @llvm.assume(i1 %55)
  br label %205

56:                                               ; No predecessors!
  br label %57

57:                                               ; preds = %56, %29
  %58 = load ptr, ptr %10, align 8
  %59 = getelementptr inbounds %struct._dom_object, ptr %58, i32 0, i32 0
  %60 = load ptr, ptr %59, align 8
  %61 = getelementptr inbounds %struct._php_libxml_node_ptr, ptr %60, i32 0, i32 0
  %62 = load ptr, ptr %61, align 8
  store ptr %62, ptr %7, align 8
  %63 = load ptr, ptr %6, align 8
  %64 = getelementptr inbounds %struct._zval_struct, ptr %63, i32 0, i32 0
  %65 = load ptr, ptr %64, align 8
  %66 = call ptr @php_dom_obj_from_obj(ptr noundef %65)
  store ptr %66, ptr %11, align 8
  %67 = load ptr, ptr %11, align 8
  %68 = getelementptr inbounds %struct._dom_object, ptr %67, i32 0, i32 0
  %69 = load ptr, ptr %68, align 8
  %70 = icmp eq ptr %69, null
  %71 = xor i1 %70, true
  %72 = xor i1 %71, true
  %73 = zext i1 %72 to i32
  %74 = sext i32 %73 to i64
  %75 = icmp ne i64 %74, 0
  br i1 %75, label %76, label %89

76:                                               ; preds = %57
  %77 = load ptr, ptr %11, align 8
  %78 = getelementptr inbounds %struct._dom_object, ptr %77, i32 0, i32 3
  %79 = getelementptr inbounds %struct._zend_object, ptr %78, i32 0, i32 2
  %80 = load ptr, ptr %79, align 8
  %81 = getelementptr inbounds %struct._zend_class_entry, ptr %80, i32 0, i32 1
  %82 = load ptr, ptr %81, align 8
  %83 = getelementptr inbounds %struct._zend_string, ptr %82, i32 0, i32 3
  %84 = getelementptr inbounds [1 x i8], ptr %83, i64 0, i64 0
  call void (ptr, ptr, ...) @zend_throw_error(ptr noundef null, ptr noundef @.str.2, ptr noundef %84)
  br label %85

85:                                               ; preds = %76
  %86 = load ptr, ptr getelementptr inbounds (%struct._zend_executor_globals, ptr @executor_globals, i32 0, i32 50), align 8
  %87 = icmp ne ptr %86, null
  call void @llvm.assume(i1 %87)
  br label %205

88:                                               ; No predecessors!
  br label %89

89:                                               ; preds = %88, %57
  %90 = load ptr, ptr %11, align 8
  %91 = getelementptr inbounds %struct._dom_object, ptr %90, i32 0, i32 0
  %92 = load ptr, ptr %91, align 8
  %93 = getelementptr inbounds %struct._php_libxml_node_ptr, ptr %92, i32 0, i32 0
  %94 = load ptr, ptr %93, align 8
  store ptr %94, ptr %8, align 8
  %95 = load ptr, ptr %8, align 8
  %96 = getelementptr inbounds %struct._xmlNode, ptr %95, i32 0, i32 1
  %97 = load i32, ptr %96, align 8
  %98 = icmp eq i32 %97, 13
  br i1 %98, label %109, label %99

99:                                               ; preds = %89
  %100 = load ptr, ptr %8, align 8
  %101 = getelementptr inbounds %struct._xmlNode, ptr %100, i32 0, i32 1
  %102 = load i32, ptr %101, align 8
  %103 = icmp eq i32 %102, 9
  br i1 %103, label %109, label %104

104:                                              ; preds = %99
  %105 = load ptr, ptr %8, align 8
  %106 = getelementptr inbounds %struct._xmlNode, ptr %105, i32 0, i32 1
  %107 = load i32, ptr %106, align 8
  %108 = icmp eq i32 %107, 10
  br i1 %108, label %109, label %116

109:                                              ; preds = %104, %99, %89
  call void (ptr, i32, ptr, ...) @php_error_docref(ptr noundef null, i32 noundef 2, ptr noundef @.str.5)
  br label %110

110:                                              ; preds = %109
  br label %111

111:                                              ; preds = %110
  %112 = load ptr, ptr %5, align 8
  %113 = getelementptr inbounds %struct._zval_struct, ptr %112, i32 0, i32 1
  store i32 2, ptr %113, align 8
  br label %114

114:                                              ; preds = %111
  br label %205

115:                                              ; No predecessors!
  br label %116

116:                                              ; preds = %115, %104
  %117 = load ptr, ptr %8, align 8
  %118 = getelementptr inbounds %struct._xmlNode, ptr %117, i32 0, i32 8
  %119 = load ptr, ptr %118, align 8
  %120 = load ptr, ptr %7, align 8
  %121 = icmp eq ptr %119, %120
  br i1 %121, label %122, label %124

122:                                              ; preds = %116
  %123 = load ptr, ptr %8, align 8
  store ptr %123, ptr %9, align 8
  br label %187

124:                                              ; preds = %116
  %125 = load ptr, ptr %8, align 8
  %126 = load ptr, ptr %7, align 8
  %127 = load ptr, ptr %10, align 8
  %128 = load i8, ptr %13, align 1
  %129 = trunc i8 %128 to i1
  %130 = call ptr @dom_clone_node(ptr noundef %125, ptr noundef %126, ptr noundef %127, i1 noundef zeroext %129)
  store ptr %130, ptr %9, align 8
  %131 = load ptr, ptr %9, align 8
  %132 = icmp ne ptr %131, null
  br i1 %132, label %140, label %133

133:                                              ; preds = %124
  br label %134

134:                                              ; preds = %133
  br label %135

135:                                              ; preds = %134
  %136 = load ptr, ptr %5, align 8
  %137 = getelementptr inbounds %struct._zval_struct, ptr %136, i32 0, i32 1
  store i32 2, ptr %137, align 8
  br label %138

138:                                              ; preds = %135
  br label %205

139:                                              ; No predecessors!
  br label %140

140:                                              ; preds = %139, %124
  %141 = load ptr, ptr %9, align 8
  %142 = getelementptr inbounds %struct._xmlNode, ptr %141, i32 0, i32 1
  %143 = load i32, ptr %142, align 8
  %144 = icmp eq i32 %143, 2
  br i1 %144, label %145, label %186

145:                                              ; preds = %140
  %146 = load ptr, ptr %8, align 8
  %147 = getelementptr inbounds %struct._xmlNode, ptr %146, i32 0, i32 9
  %148 = load ptr, ptr %147, align 8
  %149 = icmp ne ptr %148, null
  br i1 %149, label %150, label %186

150:                                              ; preds = %145
  store ptr null, ptr %14, align 8
  %151 = load ptr, ptr %7, align 8
  %152 = call ptr @xmlDocGetRootElement(ptr noundef %151)
  store ptr %152, ptr %15, align 8
  %153 = load ptr, ptr %8, align 8
  %154 = getelementptr inbounds %struct._xmlNode, ptr %153, i32 0, i32 8
  %155 = load ptr, ptr %154, align 8
  %156 = load ptr, ptr %15, align 8
  %157 = load ptr, ptr %8, align 8
  %158 = getelementptr inbounds %struct._xmlNode, ptr %157, i32 0, i32 9
  %159 = load ptr, ptr %158, align 8
  %160 = getelementptr inbounds %struct._xmlNs, ptr %159, i32 0, i32 2
  %161 = load ptr, ptr %160, align 8
  %162 = call ptr @xmlSearchNsByHref(ptr noundef %155, ptr noundef %156, ptr noundef %161)
  store ptr %162, ptr %14, align 8
  %163 = load ptr, ptr %14, align 8
  %164 = icmp eq ptr %163, null
  br i1 %164, label %170, label %165

165:                                              ; preds = %150
  %166 = load ptr, ptr %14, align 8
  %167 = getelementptr inbounds %struct._xmlNs, ptr %166, i32 0, i32 3
  %168 = load ptr, ptr %167, align 8
  %169 = icmp eq ptr %168, null
  br i1 %169, label %170, label %183

170:                                              ; preds = %165, %150
  %171 = load ptr, ptr %15, align 8
  %172 = load ptr, ptr %8, align 8
  %173 = getelementptr inbounds %struct._xmlNode, ptr %172, i32 0, i32 9
  %174 = load ptr, ptr %173, align 8
  %175 = getelementptr inbounds %struct._xmlNs, ptr %174, i32 0, i32 2
  %176 = load ptr, ptr %175, align 8
  %177 = load ptr, ptr %8, align 8
  %178 = getelementptr inbounds %struct._xmlNode, ptr %177, i32 0, i32 9
  %179 = load ptr, ptr %178, align 8
  %180 = getelementptr inbounds %struct._xmlNs, ptr %179, i32 0, i32 3
  %181 = load ptr, ptr %180, align 8
  %182 = call ptr @dom_get_ns(ptr noundef %171, ptr noundef %176, ptr noundef %16, ptr noundef %181)
  store ptr %182, ptr %14, align 8
  br label %183

183:                                              ; preds = %170, %165
  %184 = load ptr, ptr %9, align 8
  %185 = load ptr, ptr %14, align 8
  call void @xmlSetNs(ptr noundef %184, ptr noundef %185)
  br label %186

186:                                              ; preds = %183, %145, %140
  br label %187

187:                                              ; preds = %186, %122
  %188 = load ptr, ptr %10, align 8
  %189 = getelementptr inbounds %struct._dom_object, ptr %188, i32 0, i32 1
  %190 = load ptr, ptr %189, align 8
  store ptr %190, ptr %3, align 8
  %191 = load ptr, ptr %3, align 8
  %192 = icmp ne ptr %191, null
  br i1 %192, label %194, label %193

193:                                              ; preds = %187
  br label %199

194:                                              ; preds = %187
  %195 = load ptr, ptr %3, align 8
  %196 = getelementptr inbounds %struct._php_libxml_ref_obj, ptr %195, i32 0, i32 2
  %197 = load i64, ptr %196, align 8
  %198 = add i64 %197, 1
  store i64 %198, ptr %196, align 8
  br label %199

199:                                              ; preds = %194, %193
  %200 = load ptr, ptr %9, align 8
  %201 = load ptr, ptr %5, align 8
  %202 = load ptr, ptr %10, align 8
  %203 = call zeroext i1 @php_dom_create_object(ptr noundef %200, ptr noundef %201, ptr noundef %202)
  %204 = zext i1 %203 to i32
  store i32 %204, ptr %12, align 4
  br label %205

205:                                              ; preds = %199, %138, %114, %85, %53, %25
  ret void
}