; Function Attrs: nounwind uwtable
define hidden void @zim_DOM_Document_importNode(ptr nocapture noundef readonly %0, ptr noundef %1) local_unnamed_addr #0 {
  %3 = alloca ptr, align 8
  %4 = alloca i8, align 1
  %5 = alloca i32, align 4
  store i8 0, ptr %4, align 1
  %6 = getelementptr inbounds i8, ptr %0, i64 44
  %7 = load i32, ptr %6, align 4
  %8 = load ptr, ptr @dom_node_class_entry, align 8
  %9 = call i32 (i32, ptr, ...) @zend_parse_parameters(i32 noundef %7, ptr noundef nonnull @.str.4, ptr noundef nonnull %3, ptr noundef %8, ptr noundef nonnull %4) #10
  %10 = icmp eq i32 %9, -1
  br i1 %10, label %11, label %14

11:                                               ; preds = %2
  %12 = load ptr, ptr getelementptr inbounds (%struct._zend_executor_globals, ptr @executor_globals, i64 0, i32 50), align 8
  %13 = icmp ne ptr %12, null
  call void @llvm.assume(i1 %13)
  br label %96

14:                                               ; preds = %2
  %15 = getelementptr inbounds i8, ptr %0, i64 32
  %16 = load ptr, ptr %15, align 8
  %17 = getelementptr inbounds i8, ptr %16, i64 -24
  %18 = load ptr, ptr %17, align 8
  %19 = icmp eq ptr %18, null
  br i1 %19, label %20, label %28

20:                                               ; preds = %14
  %21 = getelementptr inbounds i8, ptr %16, i64 16
  %22 = load ptr, ptr %21, align 8
  %23 = getelementptr inbounds i8, ptr %22, i64 8
  %24 = load ptr, ptr %23, align 8
  %25 = getelementptr inbounds i8, ptr %24, i64 24
  call void (ptr, ptr, ...) @zend_throw_error(ptr noundef null, ptr noundef nonnull @.str.2, ptr noundef nonnull %25) #10
  %26 = load ptr, ptr getelementptr inbounds (%struct._zend_executor_globals, ptr @executor_globals, i64 0, i32 50), align 8
  %27 = icmp ne ptr %26, null
  call void @llvm.assume(i1 %27)
  br label %96

28:                                               ; preds = %14
  %29 = load ptr, ptr %18, align 8
  %30 = load ptr, ptr %3, align 8
  %31 = load ptr, ptr %30, align 8
  %32 = getelementptr inbounds i8, ptr %31, i64 -24
  %33 = load ptr, ptr %32, align 8
  %34 = icmp eq ptr %33, null
  br i1 %34, label %35, label %43

35:                                               ; preds = %28
  %36 = getelementptr inbounds i8, ptr %31, i64 16
  %37 = load ptr, ptr %36, align 8
  %38 = getelementptr inbounds i8, ptr %37, i64 8
  %39 = load ptr, ptr %38, align 8
  %40 = getelementptr inbounds i8, ptr %39, i64 24
  call void (ptr, ptr, ...) @zend_throw_error(ptr noundef null, ptr noundef nonnull @.str.2, ptr noundef nonnull %40) #10
  %41 = load ptr, ptr getelementptr inbounds (%struct._zend_executor_globals, ptr @executor_globals, i64 0, i32 50), align 8
  %42 = icmp ne ptr %41, null
  call void @llvm.assume(i1 %42)
  br label %96

43:                                               ; preds = %28
  %44 = load ptr, ptr %33, align 8
  %45 = getelementptr inbounds i8, ptr %44, i64 8
  %46 = load i32, ptr %45, align 8
  switch i32 %46, label %49 [
    i32 13, label %47
    i32 9, label %47
    i32 10, label %47
  ]

47:                                               ; preds = %43, %43, %43
  call void (ptr, i32, ptr, ...) @php_error_docref(ptr noundef null, i32 noundef 2, ptr noundef nonnull @.str.5) #10
  %48 = getelementptr inbounds i8, ptr %1, i64 8
  store i32 2, ptr %48, align 8
  br label %96

49:                                               ; preds = %43
  %50 = getelementptr inbounds i8, ptr %44, i64 64
  %51 = load ptr, ptr %50, align 8
  %52 = icmp eq ptr %51, %29
  br i1 %52, label %87, label %53

53:                                               ; preds = %49
  %54 = load i8, ptr %4, align 1
  %55 = and i8 %54, 1
  %56 = icmp ne i8 %55, 0
  %57 = call ptr @dom_clone_node(ptr noundef nonnull %44, ptr noundef %29, ptr noundef nonnull %17, i1 noundef zeroext %56) #10
  %.not = icmp eq ptr %57, null
  br i1 %.not, label %58, label %60

58:                                               ; preds = %53
  %59 = getelementptr inbounds i8, ptr %1, i64 8
  store i32 2, ptr %59, align 8
  br label %96

60:                                               ; preds = %53
  %61 = getelementptr inbounds i8, ptr %57, i64 8
  %62 = load i32, ptr %61, align 8
  %63 = icmp eq i32 %62, 2
  br i1 %63, label %64, label %87

64:                                               ; preds = %60
  %65 = getelementptr inbounds i8, ptr %44, i64 72
  %66 = load ptr, ptr %65, align 8
  %.not47 = icmp eq ptr %66, null
  br i1 %.not47, label %87, label %67

67:                                               ; preds = %64
  %68 = call ptr @xmlDocGetRootElement(ptr noundef %29) #10
  %69 = load ptr, ptr %50, align 8
  %70 = load ptr, ptr %65, align 8
  %71 = getelementptr inbounds i8, ptr %70, i64 16
  %72 = load ptr, ptr %71, align 8
  %73 = call ptr @xmlSearchNsByHref(ptr noundef %69, ptr noundef %68, ptr noundef %72) #10
  %74 = icmp eq ptr %73, null
  br i1 %74, label %79, label %75

75:                                               ; preds = %67
  %76 = getelementptr inbounds i8, ptr %73, i64 24
  %77 = load ptr, ptr %76, align 8
  %78 = icmp eq ptr %77, null
  br i1 %78, label %79, label %86

79:                                               ; preds = %75, %67
  %80 = load ptr, ptr %65, align 8
  %81 = getelementptr inbounds i8, ptr %80, i64 16
  %82 = load ptr, ptr %81, align 8
  %83 = getelementptr inbounds i8, ptr %80, i64 24
  %84 = load ptr, ptr %83, align 8
  %85 = call ptr @dom_get_ns(ptr noundef %68, ptr noundef %82, ptr noundef nonnull %5, ptr noundef %84) #10
  br label %86

86:                                               ; preds = %79, %75
  %.039 = phi ptr [ %85, %79 ], [ %73, %75 ]
  call void @xmlSetNs(ptr noundef nonnull %57, ptr noundef %.039) #10
  br label %87

87:                                               ; preds = %49, %60, %64, %86
  %.0 = phi ptr [ %57, %86 ], [ %57, %64 ], [ %57, %60 ], [ %44, %49 ]
  %88 = getelementptr inbounds i8, ptr %16, i64 -16
  %89 = load ptr, ptr %88, align 8
  %.not48 = icmp eq ptr %89, null
  br i1 %.not48, label %94, label %90

90:                                               ; preds = %87
  %91 = getelementptr inbounds i8, ptr %89, i64 16
  %92 = load i64, ptr %91, align 8
  %93 = add i64 %92, 1
  store i64 %93, ptr %91, align 8
  br label %94

94:                                               ; preds = %87, %90
  %95 = call zeroext i1 @php_dom_create_object(ptr noundef nonnull %.0, ptr noundef %1, ptr noundef nonnull %17) #10
  br label %96

96:                                               ; preds = %94, %58, %47, %35, %20, %11
  ret void
}